target datalayout = "e-m:e-p270:32:32-p271:32:32-p272:64:64-i64:64-i128:128-f80:128-n8:16:32:64-S128"
target triple = "x86_64-pc-linux-gnu"

%struct._dcerpc_info = type { ptr, i32, i64, i8, i8, i8, i32, i32, i32, i32, i32, i32, i32, i32, ptr, ptr, ptr, ptr, %struct.anon }
%struct.anon = type { i8, ptr, ptr, ptr, i8 }

@hf_netlogon_priv = internal global i32 0, align 4
@hf_netlogon_reserved = internal global i32 0, align 4
@hf_netlogon_acct_name = internal global i32 0, align 4
@hf_netlogon_logon_script = internal global i32 0, align 4
@.str.238 = private unnamed_addr constant [7 x i8] c"Domain\00", align 1
@hf_netlogon_computer_name = internal global i32 0, align 4
@hf_netlogon_domain_name = internal global i32 0, align 4
@hf_netlogon_logon_count = internal global i32 0, align 4
@hf_netlogon_bad_pw_count = internal global i32 0, align 4
@hf_netlogon_auth_flags = internal global i32 0, align 4
@hf_netlogon_logon_time = internal global i32 0, align 4
@hf_netlogon_kickoff_time = internal global i32 0, align 4
@hf_netlogon_logoff_time = internal global i32 0, align 4
@hf_netlogon_last_logoff_time = internal global i32 0, align 4
@hf_netlogon_pwd_age = internal global i32 0, align 4
@hf_netlogon_pwd_can_change_time = internal global i32 0, align 4
@hf_netlogon_pwd_must_change_time = internal global i32 0, align 4
@.str.1137 = private unnamed_addr constant [18 x i8] c"Effective Account\00", align 1
@.str.1138 = private unnamed_addr constant [9 x i8] c"Computer\00", align 1
@.str.1139 = private unnamed_addr constant [7 x i8] c"Script\00", align 1

; Function Attrs: null_pointer_is_valid sspstrong uwtable
define internal i32 @netlogon_dissect_VALIDATION_UAS_INFO(ptr noundef %0, i32 noundef %1, ptr noundef %2, ptr noundef %3, ptr noundef %4, ptr noundef %5) #0 {
  %7 = alloca i32, align 4
  %8 = alloca ptr, align 8
  %9 = alloca i32, align 4
  %10 = alloca ptr, align 8
  %11 = alloca ptr, align 8
  %12 = alloca ptr, align 8
  %13 = alloca ptr, align 8
  store ptr %0, ptr %8, align 8
  store i32 %1, ptr %9, align 4
  store ptr %2, ptr %10, align 8
  store ptr %3, ptr %11, align 8
  store ptr %4, ptr %12, align 8
  store ptr %5, ptr %13, align 8
  %14 = load ptr, ptr %12, align 8
  %15 = getelementptr inbounds nuw %struct._dcerpc_info, ptr %14, i32 0, i32 4
  %16 = load i8, ptr %15, align 1, !range !6, !noundef !7
  %17 = trunc i8 %16 to i1
  br i1 %17, label %18, label %20

18:                                               ; preds = %6
  %19 = load i32, ptr %9, align 4
  store i32 %19, ptr %7, align 4
  br label %150

20:                                               ; preds = %6
  %21 = load ptr, ptr %8, align 8
  %22 = load i32, ptr %9, align 4
  %23 = load ptr, ptr %10, align 8
  %24 = load ptr, ptr %11, align 8
  %25 = load ptr, ptr %12, align 8
  %26 = load ptr, ptr %13, align 8
  %27 = load i32, ptr @hf_netlogon_acct_name, align 4
  %28 = call i32 @dissect_ndr_str_pointer_item(ptr noundef %21, i32 noundef %22, ptr noundef %23, ptr noundef %24, ptr noundef %25, ptr noundef %26, i32 noundef 2, ptr noundef @.str.1137, i32 noundef %27, i32 noundef 0)
  store i32 %28, ptr %9, align 4
  %29 = load ptr, ptr %8, align 8
  %30 = load i32, ptr %9, align 4
  %31 = load ptr, ptr %10, align 8
  %32 = load ptr, ptr %11, align 8
  %33 = load ptr, ptr %12, align 8
  %34 = load ptr, ptr %13, align 8
  %35 = load i32, ptr @hf_netlogon_priv, align 4
  %36 = call i32 @dissect_ndr_uint32(ptr noundef %29, i32 noundef %30, ptr noundef %31, ptr noundef %32, ptr noundef %33, ptr noundef %34, i32 noundef %35, ptr noundef null)
  store i32 %36, ptr %9, align 4
  %37 = load ptr, ptr %8, align 8
  %38 = load i32, ptr %9, align 4
  %39 = load ptr, ptr %10, align 8
  %40 = load ptr, ptr %11, align 8
  %41 = load ptr, ptr %12, align 8
  %42 = load ptr, ptr %13, align 8
  %43 = load i32, ptr @hf_netlogon_auth_flags, align 4
  %44 = call i32 @dissect_ndr_uint32(ptr noundef %37, i32 noundef %38, ptr noundef %39, ptr noundef %40, ptr noundef %41, ptr noundef %42, i32 noundef %43, ptr noundef null)
  store i32 %44, ptr %9, align 4
  %45 = load ptr, ptr %8, align 8
  %46 = load i32, ptr %9, align 4
  %47 = load ptr, ptr %10, align 8
  %48 = load ptr, ptr %11, align 8
  %49 = load ptr, ptr %12, align 8
  %50 = load ptr, ptr %13, align 8
  %51 = load i32, ptr @hf_netlogon_logon_count, align 4
  %52 = call i32 @dissect_ndr_uint32(ptr noundef %45, i32 noundef %46, ptr noundef %47, ptr noundef %48, ptr noundef %49, ptr noundef %50, i32 noundef %51, ptr noundef null)
  store i32 %52, ptr %9, align 4
  %53 = load ptr, ptr %8, align 8
  %54 = load i32, ptr %9, align 4
  %55 = load ptr, ptr %10, align 8
  %56 = load ptr, ptr %11, align 8
  %57 = load ptr, ptr %12, align 8
  %58 = load ptr, ptr %13, align 8
  %59 = load i32, ptr @hf_netlogon_bad_pw_count, align 4
  %60 = call i32 @dissect_ndr_uint32(ptr noundef %53, i32 noundef %54, ptr noundef %55, ptr noundef %56, ptr noundef %57, ptr noundef %58, i32 noundef %59, ptr noundef null)
  store i32 %60, ptr %9, align 4
  %61 = load ptr, ptr %8, align 8
  %62 = load i32, ptr %9, align 4
  %63 = load ptr, ptr %10, align 8
  %64 = load ptr, ptr %11, align 8
  %65 = load ptr, ptr %12, align 8
  %66 = load ptr, ptr %13, align 8
  %67 = load i32, ptr @hf_netlogon_logon_time, align 4
  %68 = call i32 @dissect_ndr_time_t(ptr noundef %61, i32 noundef %62, ptr noundef %63, ptr noundef %64, ptr noundef %65, ptr noundef %66, i32 noundef %67, ptr noundef null)
  store i32 %68, ptr %9, align 4
  %69 = load ptr, ptr %8, align 8
  %70 = load i32, ptr %9, align 4
  %71 = load ptr, ptr %10, align 8
  %72 = load ptr, ptr %11, align 8
  %73 = load ptr, ptr %12, align 8
  %74 = load ptr, ptr %13, align 8
  %75 = load i32, ptr @hf_netlogon_last_logoff_time, align 4
  %76 = call i32 @dissect_ndr_time_t(ptr noundef %69, i32 noundef %70, ptr noundef %71, ptr noundef %72, ptr noundef %73, ptr noundef %74, i32 noundef %75, ptr noundef null)
  store i32 %76, ptr %9, align 4
  %77 = load ptr, ptr %8, align 8
  %78 = load i32, ptr %9, align 4
  %79 = load ptr, ptr %10, align 8
  %80 = load ptr, ptr %11, align 8
  %81 = load ptr, ptr %12, align 8
  %82 = load ptr, ptr %13, align 8
  %83 = load i32, ptr @hf_netlogon_logoff_time, align 4
  %84 = call i32 @dissect_ndr_time_t(ptr noundef %77, i32 noundef %78, ptr noundef %79, ptr noundef %80, ptr noundef %81, ptr noundef %82, i32 noundef %83, ptr noundef null)
  store i32 %84, ptr %9, align 4
  %85 = load ptr, ptr %8, align 8
  %86 = load i32, ptr %9, align 4
  %87 = load ptr, ptr %10, align 8
  %88 = load ptr, ptr %11, align 8
  %89 = load ptr, ptr %12, align 8
  %90 = load ptr, ptr %13, align 8
  %91 = load i32, ptr @hf_netlogon_kickoff_time, align 4
  %92 = call i32 @dissect_ndr_time_t(ptr noundef %85, i32 noundef %86, ptr noundef %87, ptr noundef %88, ptr noundef %89, ptr noundef %90, i32 noundef %91, ptr noundef null)
  store i32 %92, ptr %9, align 4
  %93 = load ptr, ptr %8, align 8
  %94 = load i32, ptr %9, align 4
  %95 = load ptr, ptr %10, align 8
  %96 = load ptr, ptr %11, align 8
  %97 = load ptr, ptr %12, align 8
  %98 = load ptr, ptr %13, align 8
  %99 = load i32, ptr @hf_netlogon_pwd_age, align 4
  %100 = call i32 @dissect_ndr_time_t(ptr noundef %93, i32 noundef %94, ptr noundef %95, ptr noundef %96, ptr noundef %97, ptr noundef %98, i32 noundef %99, ptr noundef null)
  store i32 %100, ptr %9, align 4
  %101 = load ptr, ptr %8, align 8
  %102 = load i32, ptr %9, align 4
  %103 = load ptr, ptr %10, align 8
  %104 = load ptr, ptr %11, align 8
  %105 = load ptr, ptr %12, align 8
  %106 = load ptr, ptr %13, align 8
  %107 = load i32, ptr @hf_netlogon_pwd_can_change_time, align 4
  %108 = call i32 @dissect_ndr_time_t(ptr noundef %101, i32 noundef %102, ptr noundef %103, ptr noundef %104, ptr noundef %105, ptr noundef %106, i32 noundef %107, ptr noundef null)
  store i32 %108, ptr %9, align 4
  %109 = load ptr, ptr %8, align 8
  %110 = load i32, ptr %9, align 4
  %111 = load ptr, ptr %10, align 8
  %112 = load ptr, ptr %11, align 8
  %113 = load ptr, ptr %12, align 8
  %114 = load ptr, ptr %13, align 8
  %115 = load i32, ptr @hf_netlogon_pwd_must_change_time, align 4
  %116 = call i32 @dissect_ndr_time_t(ptr noundef %109, i32 noundef %110, ptr noundef %111, ptr noundef %112, ptr noundef %113, ptr noundef %114, i32 noundef %115, ptr noundef null)
  store i32 %116, ptr %9, align 4
  %117 = load ptr, ptr %8, align 8
  %118 = load i32, ptr %9, align 4
  %119 = load ptr, ptr %10, align 8
  %120 = load ptr, ptr %11, align 8
  %121 = load ptr, ptr %12, align 8
  %122 = load ptr, ptr %13, align 8
  %123 = load i32, ptr @hf_netlogon_computer_name, align 4
  %124 = call i32 @dissect_ndr_str_pointer_item(ptr noundef %117, i32 noundef %118, ptr noundef %119, ptr noundef %120, ptr noundef %121, ptr noundef %122, i32 noundef 2, ptr noundef @.str.1138, i32 noundef %123, i32 noundef 0)
  store i32 %124, ptr %9, align 4
  %125 = load ptr, ptr %8, align 8
  %126 = load i32, ptr %9, align 4
  %127 = load ptr, ptr %10, align 8
  %128 = load ptr, ptr %11, align 8
  %129 = load ptr, ptr %12, align 8
  %130 = load ptr, ptr %13, align 8
  %131 = load i32, ptr @hf_netlogon_domain_name, align 4
  %132 = call i32 @dissect_ndr_str_pointer_item(ptr noundef %125, i32 noundef %126, ptr noundef %127, ptr noundef %128, ptr noundef %129, ptr noundef %130, i32 noundef 2, ptr noundef @.str.238, i32 noundef %131, i32 noundef 0)
  store i32 %132, ptr %9, align 4
  %133 = load ptr, ptr %8, align 8
  %134 = load i32, ptr %9, align 4
  %135 = load ptr, ptr %10, align 8
  %136 = load ptr, ptr %11, align 8
  %137 = load ptr, ptr %12, align 8
  %138 = load ptr, ptr %13, align 8
  %139 = load i32, ptr @hf_netlogon_logon_script, align 4
  %140 = call i32 @dissect_ndr_str_pointer_item(ptr noundef %133, i32 noundef %134, ptr noundef %135, ptr noundef %136, ptr noundef %137, ptr noundef %138, i32 noundef 2, ptr noundef @.str.1139, i32 noundef %139, i32 noundef 0)
  store i32 %140, ptr %9, align 4
  %141 = load ptr, ptr %8, align 8
  %142 = load i32, ptr %9, align 4
  %143 = load ptr, ptr %10, align 8
  %144 = load ptr, ptr %11, align 8
  %145 = load ptr, ptr %12, align 8
  %146 = load ptr, ptr %13, align 8
  %147 = load i32, ptr @hf_netlogon_reserved, align 4
  %148 = call i32 @dissect_ndr_uint32(ptr noundef %141, i32 noundef %142, ptr noundef %143, ptr noundef %144, ptr noundef %145, ptr noundef %146, i32 noundef %147, ptr noundef null)
  store i32 %148, ptr %9, align 4
  %149 = load i32, ptr %9, align 4
  store i32 %149, ptr %7, align 4
  br label %150

150:                                              ; preds = %20, %18
  %151 = load i32, ptr %7, align 4
  ret i32 %151
}