; Function Attrs: null_pointer_is_valid sspstrong uwtable
define internal i32 @netlogon_dissect_VALIDATION_UAS_INFO(ptr noundef %0, i32 noundef %1, ptr noundef %2, ptr noundef %3, ptr noundef %4, ptr noundef %5) #0 {
  %7 = getelementptr inbounds nuw i8, ptr %4, i64 25
  %8 = load i8, ptr %7, align 1, !range !6, !noundef !7
  %9 = trunc nuw i8 %8 to i1
  br i1 %9, label %43, label %10

10:                                               ; preds = %6
  %11 = load i32, ptr @hf_netlogon_acct_name, align 4
  %12 = tail call i32 @dissect_ndr_str_pointer_item(ptr noundef %0, i32 noundef %1, ptr noundef %2, ptr noundef %3, ptr noundef %4, ptr noundef %5, i32 noundef 2, ptr noundef nonnull @.str.1137, i32 noundef %11, i32 noundef 0)
  %13 = load i32, ptr @hf_netlogon_priv, align 4
  %14 = tail call i32 @dissect_ndr_uint32(ptr noundef %0, i32 noundef %12, ptr noundef %2, ptr noundef %3, ptr noundef %4, ptr noundef %5, i32 noundef %13, ptr noundef null)
  %15 = load i32, ptr @hf_netlogon_auth_flags, align 4
  %16 = tail call i32 @dissect_ndr_uint32(ptr noundef %0, i32 noundef %14, ptr noundef %2, ptr noundef %3, ptr noundef %4, ptr noundef %5, i32 noundef %15, ptr noundef null)
  %17 = load i32, ptr @hf_netlogon_logon_count, align 4
  %18 = tail call i32 @dissect_ndr_uint32(ptr noundef %0, i32 noundef %16, ptr noundef %2, ptr noundef %3, ptr noundef %4, ptr noundef %5, i32 noundef %17, ptr noundef null)
  %19 = load i32, ptr @hf_netlogon_bad_pw_count, align 4
  %20 = tail call i32 @dissect_ndr_uint32(ptr noundef %0, i32 noundef %18, ptr noundef %2, ptr noundef %3, ptr noundef %4, ptr noundef %5, i32 noundef %19, ptr noundef null)
  %21 = load i32, ptr @hf_netlogon_logon_time, align 4
  %22 = tail call i32 @dissect_ndr_time_t(ptr noundef %0, i32 noundef %20, ptr noundef %2, ptr noundef %3, ptr noundef %4, ptr noundef %5, i32 noundef %21, ptr noundef null)
  %23 = load i32, ptr @hf_netlogon_last_logoff_time, align 4
  %24 = tail call i32 @dissect_ndr_time_t(ptr noundef %0, i32 noundef %22, ptr noundef %2, ptr noundef %3, ptr noundef %4, ptr noundef %5, i32 noundef %23, ptr noundef null)
  %25 = load i32, ptr @hf_netlogon_logoff_time, align 4
  %26 = tail call i32 @dissect_ndr_time_t(ptr noundef %0, i32 noundef %24, ptr noundef %2, ptr noundef %3, ptr noundef %4, ptr noundef %5, i32 noundef %25, ptr noundef null)
  %27 = load i32, ptr @hf_netlogon_kickoff_time, align 4
  %28 = tail call i32 @dissect_ndr_time_t(ptr noundef %0, i32 noundef %26, ptr noundef %2, ptr noundef %3, ptr noundef %4, ptr noundef %5, i32 noundef %27, ptr noundef null)
  %29 = load i32, ptr @hf_netlogon_pwd_age, align 4
  %30 = tail call i32 @dissect_ndr_time_t(ptr noundef %0, i32 noundef %28, ptr noundef %2, ptr noundef %3, ptr noundef %4, ptr noundef %5, i32 noundef %29, ptr noundef null)
  %31 = load i32, ptr @hf_netlogon_pwd_can_change_time, align 4
  %32 = tail call i32 @dissect_ndr_time_t(ptr noundef %0, i32 noundef %30, ptr noundef %2, ptr noundef %3, ptr noundef %4, ptr noundef %5, i32 noundef %31, ptr noundef null)
  %33 = load i32, ptr @hf_netlogon_pwd_must_change_time, align 4
  %34 = tail call i32 @dissect_ndr_time_t(ptr noundef %0, i32 noundef %32, ptr noundef %2, ptr noundef %3, ptr noundef %4, ptr noundef %5, i32 noundef %33, ptr noundef null)
  %35 = load i32, ptr @hf_netlogon_computer_name, align 4
  %36 = tail call i32 @dissect_ndr_str_pointer_item(ptr noundef %0, i32 noundef %34, ptr noundef %2, ptr noundef %3, ptr noundef %4, ptr noundef %5, i32 noundef 2, ptr noundef nonnull @.str.1138, i32 noundef %35, i32 noundef 0)
  %37 = load i32, ptr @hf_netlogon_domain_name, align 4
  %38 = tail call i32 @dissect_ndr_str_pointer_item(ptr noundef %0, i32 noundef %36, ptr noundef %2, ptr noundef %3, ptr noundef %4, ptr noundef %5, i32 noundef 2, ptr noundef nonnull @.str.238, i32 noundef %37, i32 noundef 0)
  %39 = load i32, ptr @hf_netlogon_logon_script, align 4
  %40 = tail call i32 @dissect_ndr_str_pointer_item(ptr noundef %0, i32 noundef %38, ptr noundef %2, ptr noundef %3, ptr noundef %4, ptr noundef %5, i32 noundef 2, ptr noundef nonnull @.str.1139, i32 noundef %39, i32 noundef 0)
  %41 = load i32, ptr @hf_netlogon_reserved, align 4
  %42 = tail call i32 @dissect_ndr_uint32(ptr noundef %0, i32 noundef %40, ptr noundef %2, ptr noundef %3, ptr noundef %4, ptr noundef %5, i32 noundef %41, ptr noundef null)
  br label %43

43:                                               ; preds = %6, %10
  %.0 = phi i32 [ %42, %10 ], [ %1, %6 ]
  ret i32 %.0
}